target datalayout = "e-m:e-p270:32:32-p271:32:32-p272:64:64-i64:64-i128:128-f80:128-n8:16:32:64-S128"
target triple = "x86_64-pc-linux-gnu"

%struct.H5D_t = type { %struct.H5O_loc_t, %struct.H5G_name_t, ptr }
%struct.H5O_loc_t = type { ptr, i64, i8 }
%struct.H5G_name_t = type { ptr, ptr, i32 }
%struct.H5D_shared_t = type { i64, i8, i64, ptr, ptr, i64, i64, %struct.H5D_dcpl_cache_t, %struct.H5O_layout_t, i8, i32, [32 x i64], [32 x i64], [32 x i64], %struct.anon.7, %struct.H5D_append_flush_t, ptr, ptr }
%struct.H5D_dcpl_cache_t = type { %struct.H5O_fill_t, %struct.H5O_pline_t, %struct.H5O_efl_t }
%struct.H5O_fill_t = type { %struct.H5O_shared_t, i32, ptr, i64, ptr, i32, i32, i8 }
%struct.H5O_shared_t = type { i32, ptr, i32, %union.anon.0 }
%union.anon.0 = type { %struct.H5O_mesg_loc_t }
%struct.H5O_mesg_loc_t = type { i32, i64 }
%struct.H5O_pline_t = type { %struct.H5O_shared_t, i32, i64, i64, ptr }
%struct.H5O_efl_t = type { i64, i64, i64, ptr }
%struct.H5O_layout_t = type { i32, i32, ptr, %union.anon.1, %struct.H5O_storage_t }
%union.anon.1 = type { %struct.H5O_layout_chunk_t }
%struct.H5O_layout_chunk_t = type { i32, i8, i32, [33 x i32], i32, i32, i64, i64, [33 x i64], [33 x i64], [33 x i64], [33 x i64], %union.anon.2 }
%union.anon.2 = type { %struct.H5O_layout_chunk_earray_t }
%struct.H5O_layout_chunk_earray_t = type { %struct.anon.3, i32, [33 x i32], [33 x i64], [33 x i64] }
%struct.anon.3 = type { i8, i8, i8, i8, i8 }
%struct.H5O_storage_t = type { i32, %union.anon.5 }
%union.anon.5 = type { %struct.H5O_storage_virtual_t }
%struct.H5O_storage_virtual_t = type { %struct.H5HG_t, i64, ptr, i64, [32 x i64], i32, i64, i64, i64, i8 }
%struct.H5HG_t = type { i64, i64 }
%struct.anon.7 = type { %struct.H5D_rdcdc_t, %struct.H5D_rdcc_t }
%struct.H5D_rdcdc_t = type { ptr, i64, i64, i64, i8 }
%struct.H5D_rdcc_t = type { %struct.anon.8, i64, i64, double, ptr, ptr, ptr, i64, i32, %struct.H5D_chunk_cached_t, ptr, ptr, ptr, ptr, [32 x i64], [32 x i64], [32 x i32] }
%struct.anon.8 = type { i32, i32, i32, i32 }
%struct.H5D_chunk_cached_t = type { i8, [33 x i64], i64, i32, i64, i32 }
%struct.H5D_append_flush_t = type { i32, [32 x i64], ptr, ptr }
%struct.H5O_storage_contig_t = type { i64, i64 }

@H5D_init_g = external global i8, align 1
@H5_libterm_g = external global i8, align 1
@.str.1 = private unnamed_addr constant [103 x i8] c"generated/home/dtcxzyw/WorkSpace/Projects/compilers/llvm-opt-benchmark/bench/hdf5/hdf5/src/H5Dcontig.c\00", align 1
@H5E_DATASET_g = external global i64, align 8
@H5E_CANTGET_g = external global i64, align 8
@.str.10 = private unnamed_addr constant [36 x i8] c"unable to retrieve size of datatype\00", align 1
@H5E_OVERFLOW_g = external global i64, align 8
@.str.11 = private unnamed_addr constant [37 x i8] c"size of dataset's storage overflowed\00", align 1
@__func__.H5D__contig_construct = private unnamed_addr constant [22 x i8] c"H5D__contig_construct\00", align 1
@H5E_UNSUPPORTED_g = external global i64, align 8
@.str.35 = private unnamed_addr constant [55 x i8] c"extendible contiguous non-external dataset not allowed\00", align 1
@.str.36 = private unnamed_addr constant [51 x i8] c"unable to retrieve number of elements in dataspace\00", align 1

; Function Attrs: nounwind uwtable
define internal i32 @H5D__contig_construct(ptr noundef %0, ptr noundef %1) #0 {
  %3 = alloca ptr, align 8
  %4 = alloca ptr, align 8
  %5 = alloca i64, align 8
  %6 = alloca i64, align 8
  %7 = alloca i64, align 8
  %8 = alloca i64, align 8
  %9 = alloca i64, align 8
  %10 = alloca i32, align 4
  %11 = alloca i32, align 4
  %12 = alloca i8, align 1
  store ptr %0, ptr %3, align 8, !tbaa !3
  store ptr %1, ptr %4, align 8, !tbaa !8
  call void @llvm.lifetime.start.p0(i64 8, ptr %5) #6
  call void @llvm.lifetime.start.p0(i64 8, ptr %6) #6
  call void @llvm.lifetime.start.p0(i64 8, ptr %7) #6
  call void @llvm.lifetime.start.p0(i64 8, ptr %8) #6
  call void @llvm.lifetime.start.p0(i64 8, ptr %9) #6
  call void @llvm.lifetime.start.p0(i64 4, ptr %10) #6
  call void @llvm.lifetime.start.p0(i64 4, ptr %11) #6
  store i32 0, ptr %11, align 4, !tbaa !10
  call void @llvm.lifetime.start.p0(i64 1, ptr %12) #6
  store i8 0, ptr %12, align 1, !tbaa !12
  %13 = load i8, ptr @H5D_init_g, align 1, !tbaa !12, !range !14, !noundef !15
  %14 = trunc i8 %13 to i1
  br i1 %14, label %19, label %15

15:                                               ; preds = %2
  %16 = load i8, ptr @H5_libterm_g, align 1, !tbaa !12, !range !14, !noundef !15
  %17 = trunc i8 %16 to i1
  %18 = xor i1 %17, true
  br label %19

19:                                               ; preds = %15, %2
  %20 = phi i1 [ true, %2 ], [ %18, %15 ]
  %21 = xor i1 %20, true
  %22 = xor i1 %21, true
  %23 = zext i1 %22 to i32
  %24 = sext i32 %23 to i64
  %25 = call i64 @llvm.expect.i64(i64 %24, i64 1)
  %26 = icmp ne i64 %25, 0
  br i1 %26, label %27, label %192

27:                                               ; preds = %19
  store i32 0, ptr %10, align 4, !tbaa !10
  br label %28

28:                                               ; preds = %74, %27
  %29 = load i32, ptr %10, align 4, !tbaa !10
  %30 = load ptr, ptr %4, align 8, !tbaa !8
  %31 = getelementptr inbounds nuw %struct.H5D_t, ptr %30, i32 0, i32 2
  %32 = load ptr, ptr %31, align 8, !tbaa !16
  %33 = getelementptr inbounds nuw %struct.H5D_shared_t, ptr %32, i32 0, i32 10
  %34 = load i32, ptr %33, align 4, !tbaa !23
  %35 = icmp ult i32 %29, %34
  br i1 %35, label %36, label %77

36:                                               ; preds = %28
  %37 = load ptr, ptr %4, align 8, !tbaa !8
  %38 = getelementptr inbounds nuw %struct.H5D_t, ptr %37, i32 0, i32 2
  %39 = load ptr, ptr %38, align 8, !tbaa !16
  %40 = getelementptr inbounds nuw %struct.H5D_shared_t, ptr %39, i32 0, i32 13
  %41 = load i32, ptr %10, align 4, !tbaa !10
  %42 = zext i32 %41 to i64
  %43 = getelementptr inbounds nuw [32 x i64], ptr %40, i64 0, i64 %42
  %44 = load i64, ptr %43, align 8, !tbaa !49
  %45 = load ptr, ptr %4, align 8, !tbaa !8
  %46 = getelementptr inbounds nuw %struct.H5D_t, ptr %45, i32 0, i32 2
  %47 = load ptr, ptr %46, align 8, !tbaa !16
  %48 = getelementptr inbounds nuw %struct.H5D_shared_t, ptr %47, i32 0, i32 11
  %49 = load i32, ptr %10, align 4, !tbaa !10
  %50 = zext i32 %49 to i64
  %51 = getelementptr inbounds nuw [32 x i64], ptr %48, i64 0, i64 %50
  %52 = load i64, ptr %51, align 8, !tbaa !49
  %53 = icmp ugt i64 %44, %52
  br i1 %53, label %54, label %73

54:                                               ; preds = %36
  br label %55

55:                                               ; preds = %54
  br label %56

56:                                               ; preds = %55
  br label %57

57:                                               ; preds = %56
  %58 = load i64, ptr @H5E_DATASET_g, align 8, !tbaa !49
  %59 = load i64, ptr @H5E_UNSUPPORTED_g, align 8, !tbaa !49
  %60 = call i32 (ptr, ptr, i32, i64, i64, ptr, ...) @H5E_printf_stack(ptr noundef @.str.1, ptr noundef @__func__.H5D__contig_construct, i32 noundef 454, i64 noundef %58, i64 noundef %59, ptr noundef @.str.35)
  br label %61

61:                                               ; preds = %57
  br label %62

62:                                               ; preds = %61
  store i8 1, ptr %12, align 1, !tbaa !12
  %63 = load i8, ptr %12, align 1, !tbaa !12, !range !14, !noundef !15
  %64 = trunc i8 %63 to i1
  %65 = zext i1 %64 to i8
  store i8 %65, ptr %12, align 1, !tbaa !12
  br label %66

66:                                               ; preds = %62
  br label %67

67:                                               ; preds = %66
  br label %68

68:                                               ; preds = %67
  store i32 -1, ptr %11, align 4, !tbaa !10
  br label %191

69:                                               ; No predecessors!
  br label %70

70:                                               ; preds = %69
  br label %71

71:                                               ; preds = %70
  br label %72

72:                                               ; preds = %71
  br label %73

73:                                               ; preds = %72, %36
  br label %74

74:                                               ; preds = %73
  %75 = load i32, ptr %10, align 4, !tbaa !10
  %76 = add i32 %75, 1
  store i32 %76, ptr %10, align 4, !tbaa !10
  br label %28, !llvm.loop !50

77:                                               ; preds = %28
  %78 = load ptr, ptr %4, align 8, !tbaa !8
  %79 = getelementptr inbounds nuw %struct.H5D_t, ptr %78, i32 0, i32 2
  %80 = load ptr, ptr %79, align 8, !tbaa !16
  %81 = getelementptr inbounds nuw %struct.H5D_shared_t, ptr %80, i32 0, i32 4
  %82 = load ptr, ptr %81, align 8, !tbaa !52
  %83 = call i64 @H5S_get_simple_extent_npoints(ptr noundef %82)
  store i64 %83, ptr %5, align 8, !tbaa !49
  %84 = icmp slt i64 %83, 0
  br i1 %84, label %85, label %104

85:                                               ; preds = %77
  br label %86

86:                                               ; preds = %85
  br label %87

87:                                               ; preds = %86
  br label %88

88:                                               ; preds = %87
  %89 = load i64, ptr @H5E_DATASET_g, align 8, !tbaa !49
  %90 = load i64, ptr @H5E_CANTGET_g, align 8, !tbaa !49
  %91 = call i32 (ptr, ptr, i32, i64, i64, ptr, ...) @H5E_printf_stack(ptr noundef @.str.1, ptr noundef @__func__.H5D__contig_construct, i32 noundef 458, i64 noundef %89, i64 noundef %90, ptr noundef @.str.36)
  br label %92

92:                                               ; preds = %88
  br label %93

93:                                               ; preds = %92
  store i8 1, ptr %12, align 1, !tbaa !12
  %94 = load i8, ptr %12, align 1, !tbaa !12, !range !14, !noundef !15
  %95 = trunc i8 %94 to i1
  %96 = zext i1 %95 to i8
  store i8 %96, ptr %12, align 1, !tbaa !12
  br label %97

97:                                               ; preds = %93
  br label %98

98:                                               ; preds = %97
  br label %99

99:                                               ; preds = %98
  store i32 -1, ptr %11, align 4, !tbaa !10
  br label %191

100:                                              ; No predecessors!
  br label %101

101:                                              ; preds = %100
  br label %102

102:                                              ; preds = %101
  br label %103

103:                                              ; preds = %102
  br label %104

104:                                              ; preds = %103, %77
  %105 = load i64, ptr %5, align 8, !tbaa !49
  store i64 %105, ptr %6, align 8, !tbaa !49
  %106 = load ptr, ptr %4, align 8, !tbaa !8
  %107 = getelementptr inbounds nuw %struct.H5D_t, ptr %106, i32 0, i32 2
  %108 = load ptr, ptr %107, align 8, !tbaa !16
  %109 = getelementptr inbounds nuw %struct.H5D_shared_t, ptr %108, i32 0, i32 3
  %110 = load ptr, ptr %109, align 8, !tbaa !53
  %111 = call i64 @H5T_get_size(ptr noundef %110)
  store i64 %111, ptr %7, align 8, !tbaa !49
  %112 = icmp eq i64 0, %111
  br i1 %112, label %113, label %132

113:                                              ; preds = %104
  br label %114

114:                                              ; preds = %113
  br label %115

115:                                              ; preds = %114
  br label %116

116:                                              ; preds = %115
  %117 = load i64, ptr @H5E_DATASET_g, align 8, !tbaa !49
  %118 = load i64, ptr @H5E_CANTGET_g, align 8, !tbaa !49
  %119 = call i32 (ptr, ptr, i32, i64, i64, ptr, ...) @H5E_printf_stack(ptr noundef @.str.1, ptr noundef @__func__.H5D__contig_construct, i32 noundef 463, i64 noundef %117, i64 noundef %118, ptr noundef @.str.10)
  br label %120

120:                                              ; preds = %116
  br label %121

121:                                              ; preds = %120
  store i8 1, ptr %12, align 1, !tbaa !12
  %122 = load i8, ptr %12, align 1, !tbaa !12, !range !14, !noundef !15
  %123 = trunc i8 %122 to i1
  %124 = zext i1 %123 to i8
  store i8 %124, ptr %12, align 1, !tbaa !12
  br label %125

125:                                              ; preds = %121
  br label %126

126:                                              ; preds = %125
  br label %127

127:                                              ; preds = %126
  store i32 -1, ptr %11, align 4, !tbaa !10
  br label %191

128:                                              ; No predecessors!
  br label %129

129:                                              ; preds = %128
  br label %130

130:                                              ; preds = %129
  br label %131

131:                                              ; preds = %130
  br label %132

132:                                              ; preds = %131, %104
  %133 = load i64, ptr %6, align 8, !tbaa !49
  %134 = load i64, ptr %7, align 8, !tbaa !49
  %135 = mul i64 %133, %134
  store i64 %135, ptr %8, align 8, !tbaa !49
  %136 = load i64, ptr %6, align 8, !tbaa !49
  %137 = load i64, ptr %8, align 8, !tbaa !49
  %138 = load i64, ptr %7, align 8, !tbaa !49
  %139 = udiv i64 %137, %138
  %140 = icmp ne i64 %136, %139
  br i1 %140, label %141, label %160

141:                                              ; preds = %132
  br label %142

142:                                              ; preds = %141
  br label %143

143:                                              ; preds = %142
  br label %144

144:                                              ; preds = %143
  %145 = load i64, ptr @H5E_DATASET_g, align 8, !tbaa !49
  %146 = load i64, ptr @H5E_OVERFLOW_g, align 8, !tbaa !49
  %147 = call i32 (ptr, ptr, i32, i64, i64, ptr, ...) @H5E_printf_stack(ptr noundef @.str.1, ptr noundef @__func__.H5D__contig_construct, i32 noundef 470, i64 noundef %145, i64 noundef %146, ptr noundef @.str.11)
  br label %148

148:                                              ; preds = %144
  br label %149

149:                                              ; preds = %148
  store i8 1, ptr %12, align 1, !tbaa !12
  %150 = load i8, ptr %12, align 1, !tbaa !12, !range !14, !noundef !15
  %151 = trunc i8 %150 to i1
  %152 = zext i1 %151 to i8
  store i8 %152, ptr %12, align 1, !tbaa !12
  br label %153

153:                                              ; preds = %149
  br label %154

154:                                              ; preds = %153
  br label %155

155:                                              ; preds = %154
  store i32 -1, ptr %11, align 4, !tbaa !10
  br label %191

156:                                              ; No predecessors!
  br label %157

157:                                              ; preds = %156
  br label %158

158:                                              ; preds = %157
  br label %159

159:                                              ; preds = %158
  br label %160

160:                                              ; preds = %159, %132
  %161 = load i64, ptr %8, align 8, !tbaa !49
  %162 = load ptr, ptr %4, align 8, !tbaa !8
  %163 = getelementptr inbounds nuw %struct.H5D_t, ptr %162, i32 0, i32 2
  %164 = load ptr, ptr %163, align 8, !tbaa !16
  %165 = getelementptr inbounds nuw %struct.H5D_shared_t, ptr %164, i32 0, i32 8
  %166 = getelementptr inbounds nuw %struct.H5O_layout_t, ptr %165, i32 0, i32 4
  %167 = getelementptr inbounds nuw %struct.H5O_storage_t, ptr %166, i32 0, i32 1
  %168 = getelementptr inbounds nuw %struct.H5O_storage_contig_t, ptr %167, i32 0, i32 1
  store i64 %161, ptr %168, align 8, !tbaa !54
  %169 = load ptr, ptr %3, align 8, !tbaa !3
  %170 = call i64 @H5F_sieve_buf_size(ptr noundef %169)
  store i64 %170, ptr %9, align 8, !tbaa !49
  %171 = load i64, ptr %8, align 8, !tbaa !49
  %172 = load i64, ptr %9, align 8, !tbaa !49
  %173 = icmp ult i64 %171, %172
  br i1 %173, label %174, label %182

174:                                              ; preds = %160
  %175 = load i64, ptr %8, align 8, !tbaa !49
  %176 = load ptr, ptr %4, align 8, !tbaa !8
  %177 = getelementptr inbounds nuw %struct.H5D_t, ptr %176, i32 0, i32 2
  %178 = load ptr, ptr %177, align 8, !tbaa !16
  %179 = getelementptr inbounds nuw %struct.H5D_shared_t, ptr %178, i32 0, i32 14
  %180 = getelementptr inbounds nuw %struct.anon.7, ptr %179, i32 0, i32 0
  %181 = getelementptr inbounds nuw %struct.H5D_rdcdc_t, ptr %180, i32 0, i32 3
  store i64 %175, ptr %181, align 8, !tbaa !55
  br label %190

182:                                              ; preds = %160
  %183 = load i64, ptr %9, align 8, !tbaa !49
  %184 = load ptr, ptr %4, align 8, !tbaa !8
  %185 = getelementptr inbounds nuw %struct.H5D_t, ptr %184, i32 0, i32 2
  %186 = load ptr, ptr %185, align 8, !tbaa !16
  %187 = getelementptr inbounds nuw %struct.H5D_shared_t, ptr %186, i32 0, i32 14
  %188 = getelementptr inbounds nuw %struct.anon.7, ptr %187, i32 0, i32 0
  %189 = getelementptr inbounds nuw %struct.H5D_rdcdc_t, ptr %188, i32 0, i32 3
  store i64 %183, ptr %189, align 8, !tbaa !55
  br label %190

190:                                              ; preds = %182, %174
  br label %191

191:                                              ; preds = %190, %155, %127, %99, %68
  br label %192

192:                                              ; preds = %191, %19
  %193 = load i32, ptr %11, align 4, !tbaa !10
  call void @llvm.lifetime.end.p0(i64 1, ptr %12) #6
  call void @llvm.lifetime.end.p0(i64 4, ptr %11) #6
  call void @llvm.lifetime.end.p0(i64 4, ptr %10) #6
  call void @llvm.lifetime.end.p0(i64 8, ptr %9) #6
  call void @llvm.lifetime.end.p0(i64 8, ptr %8) #6
  call void @llvm.lifetime.end.p0(i64 8, ptr %7) #6
  call void @llvm.lifetime.end.p0(i64 8, ptr %6) #6
  call void @llvm.lifetime.end.p0(i64 8, ptr %5) #6
  ret i32 %193
}