; Function Attrs: nounwind uwtable
define internal range(i32 -1, 1) i32 @H5D__contig_construct(ptr noundef %0, ptr noundef readonly captures(none) %1) #0 {
  %3 = load i8, ptr @H5D_init_g, align 1, !tbaa !3, !range !7, !noundef !8
  %4 = trunc nuw i8 %3 to i1
  %5 = load i8, ptr @H5_libterm_g, align 1, !range !7
  %6 = trunc nuw i8 %5 to i1
  %7 = xor i1 %6, true
  %8 = select i1 %4, i1 true, i1 %7
  br i1 %8, label %.preheader, label %58, !prof !9

.preheader:                                       ; preds = %2
  %9 = getelementptr inbounds nuw i8, ptr %1, i64 48
  %10 = load ptr, ptr %9, align 8, !tbaa !10
  %11 = getelementptr inbounds nuw i8, ptr %10, i64 2508
  %12 = load i32, ptr %11, align 4, !tbaa !20
  %.not = icmp eq i32 %12, 0
  br i1 %.not, label %._crit_edge, label %.lr.ph

.lr.ph:                                           ; preds = %.preheader
  %13 = getelementptr inbounds nuw i8, ptr %10, i64 3024
  %14 = getelementptr inbounds nuw i8, ptr %10, i64 2512
  %wide.trip.count = zext i32 %12 to i64
  br label %16

15:                                               ; preds = %16
  %indvars.iv.next = add nuw nsw i64 %indvars.iv, 1
  %exitcond.not = icmp eq i64 %indvars.iv.next, %wide.trip.count
  br i1 %exitcond.not, label %._crit_edge, label %16, !llvm.loop !46

16:                                               ; preds = %.lr.ph, %15
  %indvars.iv = phi i64 [ 0, %.lr.ph ], [ %indvars.iv.next, %15 ]
  %17 = getelementptr inbounds nuw [32 x i64], ptr %13, i64 0, i64 %indvars.iv
  %18 = load i64, ptr %17, align 8, !tbaa !48
  %19 = getelementptr inbounds nuw [32 x i64], ptr %14, i64 0, i64 %indvars.iv
  %20 = load i64, ptr %19, align 8, !tbaa !48
  %21 = icmp ugt i64 %18, %20
  br i1 %21, label %22, label %15

22:                                               ; preds = %16
  %23 = load i64, ptr @H5E_DATASET_g, align 8, !tbaa !48
  %24 = load i64, ptr @H5E_UNSUPPORTED_g, align 8, !tbaa !48
  %25 = tail call i32 (ptr, ptr, i32, i64, i64, ptr, ...) @H5E_printf_stack(ptr noundef nonnull @.str.1, ptr noundef nonnull @__func__.H5D__contig_construct, i32 noundef 454, i64 noundef %23, i64 noundef %24, ptr noundef nonnull @.str.35) #9
  br label %58

._crit_edge:                                      ; preds = %15, %.preheader
  %26 = getelementptr inbounds nuw i8, ptr %10, i64 32
  %27 = load ptr, ptr %26, align 8, !tbaa !49
  %28 = tail call i64 @H5S_get_simple_extent_npoints(ptr noundef %27) #9
  %29 = icmp slt i64 %28, 0
  br i1 %29, label %30, label %34

30:                                               ; preds = %._crit_edge
  %31 = load i64, ptr @H5E_DATASET_g, align 8, !tbaa !48
  %32 = load i64, ptr @H5E_CANTGET_g, align 8, !tbaa !48
  %33 = tail call i32 (ptr, ptr, i32, i64, i64, ptr, ...) @H5E_printf_stack(ptr noundef nonnull @.str.1, ptr noundef nonnull @__func__.H5D__contig_construct, i32 noundef 458, i64 noundef %31, i64 noundef %32, ptr noundef nonnull @.str.36) #9
  br label %58

34:                                               ; preds = %._crit_edge
  %35 = load ptr, ptr %9, align 8, !tbaa !10
  %36 = getelementptr inbounds nuw i8, ptr %35, i64 24
  %37 = load ptr, ptr %36, align 8, !tbaa !50
  %38 = tail call i64 @H5T_get_size(ptr noundef %37) #9
  %39 = icmp eq i64 %38, 0
  br i1 %39, label %40, label %44

40:                                               ; preds = %34
  %41 = load i64, ptr @H5E_DATASET_g, align 8, !tbaa !48
  %42 = load i64, ptr @H5E_CANTGET_g, align 8, !tbaa !48
  %43 = tail call i32 (ptr, ptr, i32, i64, i64, ptr, ...) @H5E_printf_stack(ptr noundef nonnull @.str.1, ptr noundef nonnull @__func__.H5D__contig_construct, i32 noundef 463, i64 noundef %41, i64 noundef %42, ptr noundef nonnull @.str.10) #9
  br label %58

44:                                               ; preds = %34
  %mul = tail call { i64, i1 } @llvm.umul.with.overflow.i64(i64 %38, i64 %28)
  %mul.val = extractvalue { i64, i1 } %mul, 0
  %mul.ov = extractvalue { i64, i1 } %mul, 1
  br i1 %mul.ov, label %45, label %49

45:                                               ; preds = %44
  %46 = load i64, ptr @H5E_DATASET_g, align 8, !tbaa !48
  %47 = load i64, ptr @H5E_OVERFLOW_g, align 8, !tbaa !48
  %48 = tail call i32 (ptr, ptr, i32, i64, i64, ptr, ...) @H5E_printf_stack(ptr noundef nonnull @.str.1, ptr noundef nonnull @__func__.H5D__contig_construct, i32 noundef 470, i64 noundef %46, i64 noundef %47, ptr noundef nonnull @.str.11) #9
  br label %58

49:                                               ; preds = %44
  %50 = load ptr, ptr %9, align 8, !tbaa !10
  %51 = getelementptr inbounds nuw i8, ptr %50, i64 2176
  store i64 %mul.val, ptr %51, align 8, !tbaa !51
  %52 = tail call i64 @H5F_sieve_buf_size(ptr noundef %0) #9
  %53 = icmp ult i64 %mul.val, %52
  %54 = load ptr, ptr %9, align 8, !tbaa !10
  %55 = getelementptr inbounds nuw i8, ptr %54, i64 3304
  br i1 %53, label %56, label %57

56:                                               ; preds = %49
  store i64 %mul.val, ptr %55, align 8, !tbaa !52
  br label %58

57:                                               ; preds = %49
  store i64 %52, ptr %55, align 8, !tbaa !52
  br label %58

58:                                               ; preds = %22, %30, %40, %45, %57, %56, %2
  %.0 = phi i32 [ -1, %22 ], [ -1, %30 ], [ -1, %40 ], [ -1, %45 ], [ 0, %56 ], [ 0, %57 ], [ 0, %2 ]
  ret i32 %.0
}